; Function Attrs: nounwind uwtable
define i32 @dt_lib_is_visible(ptr noundef %0) local_unnamed_addr #0 {
  %2 = load ptr, ptr getelementptr inbounds nuw (i8, ptr @darktable, i64 80), align 8, !tbaa !22
  %3 = tail call ptr @dt_view_manager_get_current_view(ptr noundef %2) #19
  %4 = getelementptr inbounds nuw i8, ptr %0, i64 64
  %5 = load ptr, ptr %4, align 8, !tbaa !6
  %.not.i = icmp eq ptr %5, null
  br i1 %.not.i, label %6, label %10

6:                                                ; preds = %1
  %7 = getelementptr inbounds nuw i8, ptr %0, i64 56
  %8 = load ptr, ptr %7, align 8, !tbaa !17
  %9 = tail call ptr %8(ptr noundef nonnull %0) #19
  tail call void (ptr, ...) @dt_print_ext(ptr noundef nonnull @.str, ptr noundef %9) #19
  br label %dt_lib_is_visible_in_view.exit

10:                                               ; preds = %1
  %11 = tail call i32 %5(ptr noundef nonnull %0) #19
  %12 = getelementptr inbounds nuw i8, ptr %3, i64 64
  %13 = load ptr, ptr %12, align 8, !tbaa !18
  %14 = tail call i32 %13(ptr noundef %3) #19
  %15 = and i32 %14, %11
  %16 = tail call fastcc ptr @_get_lib_view_path(ptr noundef nonnull %0, ptr noundef %3, ptr noundef nonnull @.str.1)
  %.not17.i = icmp eq ptr %16, null
  br i1 %.not17.i, label %21, label %17

17:                                               ; preds = %10
  %18 = tail call i32 @dt_conf_key_exists(ptr noundef nonnull %16) #19
  %.not18.i = icmp eq i32 %18, 0
  br i1 %.not18.i, label %21, label %19

19:                                               ; preds = %17
  %20 = tail call i32 @dt_conf_get_bool(ptr noundef nonnull %16) #19
  br label %21

21:                                               ; preds = %19, %17, %10
  %.014.i = phi i32 [ %20, %19 ], [ %15, %17 ], [ %15, %10 ]
  tail call void @g_free(ptr noundef %16) #19
  br label %dt_lib_is_visible_in_view.exit

dt_lib_is_visible_in_view.exit:                   ; preds = %6, %21
  %.0.i = phi i32 [ %.014.i, %21 ], [ 0, %6 ]
  ret i32 %.0.i
}